; Function Attrs: mustprogress nounwind uwtable
define dso_local noundef zeroext i1 @_ZN4llvm4yaml6Output12preflightKeyEPKcbbRbRPv(ptr noundef nonnull align 8 dereferenceable(128) %0, ptr noundef %1, i1 noundef zeroext %2, i1 noundef zeroext %3, ptr noundef nonnull writeonly align 1 captures(none) dereferenceable(1) initializes((0, 1)) %4, ptr noundef nonnull writeonly align 8 captures(none) dereferenceable(8) initializes((0, 8)) %5) unnamed_addr #6 align 2 {
  store i8 0, ptr %4, align 1
  store ptr null, ptr %5, align 8
  %.not = xor i1 %3, true
  %brmerge = or i1 %2, %.not
  br i1 %brmerge, label %11, label %7

7:                                                ; preds = %6
  %8 = getelementptr inbounds nuw i8, ptr %0, i64 95
  %9 = load i8, ptr %8, align 1
  %10 = trunc i8 %9 to i1
  br i1 %10, label %11, label %49

11:                                               ; preds = %6, %7
  %12 = getelementptr inbounds nuw i8, ptr %0, i64 32
  %13 = load ptr, ptr %12, align 8
  %14 = tail call noundef i64 @_ZNK4llvm15SmallVectorBaseIjE4sizeEv(ptr noundef nonnull align 8 dereferenceable(16) %12) #32
  %15 = getelementptr inbounds i32, ptr %13, i64 %14
  %16 = getelementptr inbounds i8, ptr %15, i64 -4
  %17 = load i32, ptr %16, align 4
  %18 = and i32 %17, -2
  %or.cond = icmp eq i32 %18, 6
  br i1 %or.cond, label %19, label %23

19:                                               ; preds = %11
  %.not.i = icmp eq ptr %1, null
  br i1 %.not.i, label %_ZN4llvm9StringRefC2EPKc.exit, label %20

20:                                               ; preds = %19
  %21 = tail call noundef i64 @strlen(ptr noundef nonnull dereferenceable(1) %1) #32
  br label %_ZN4llvm9StringRefC2EPKc.exit

_ZN4llvm9StringRefC2EPKc.exit:                    ; preds = %19, %20
  %22 = phi i64 [ %21, %20 ], [ 0, %19 ]
  tail call void @_ZN4llvm4yaml6Output7flowKeyENS_9StringRefE(ptr noundef nonnull align 8 dereferenceable(128) %0, ptr %1, i64 %22)
  br label %49

23:                                               ; preds = %11
  tail call void @_ZN4llvm4yaml6Output12newLineCheckEb(ptr noundef nonnull align 8 dereferenceable(128) %0, i1 noundef zeroext false)
  %.not.i10 = icmp eq ptr %1, null
  br i1 %.not.i10, label %_ZN4llvm9StringRefC2EPKc.exit11, label %24

24:                                               ; preds = %23
  %25 = tail call noundef i64 @strlen(ptr noundef nonnull dereferenceable(1) %1) #32
  br label %_ZN4llvm9StringRefC2EPKc.exit11

_ZN4llvm9StringRefC2EPKc.exit11:                  ; preds = %23, %24
  %26 = phi i64 [ %25, %24 ], [ 0, %23 ]
  %27 = tail call noundef i32 @_ZN4llvm4yaml11needsQuotesENS_9StringRefEb(ptr %1, i64 %26, i1 noundef zeroext false)
  tail call void @_ZN4llvm4yaml6Output6outputENS_9StringRefENS0_11QuotingTypeE(ptr noundef nonnull align 8 dereferenceable(128) %0, ptr %1, i64 %26, i32 noundef %27)
  %28 = getelementptr inbounds nuw i8, ptr %0, i64 80
  %29 = load i32, ptr %28, align 8
  %30 = add i32 %29, 1
  store i32 %30, ptr %28, align 8
  %31 = getelementptr inbounds nuw i8, ptr %0, i64 16
  %32 = load ptr, ptr %31, align 8
  %33 = getelementptr inbounds nuw i8, ptr %32, i64 24
  %34 = load ptr, ptr %33, align 8
  %35 = getelementptr inbounds nuw i8, ptr %32, i64 32
  %36 = load ptr, ptr %35, align 8
  %37 = icmp eq ptr %34, %36
  br i1 %37, label %38, label %40

38:                                               ; preds = %_ZN4llvm9StringRefC2EPKc.exit11
  %39 = tail call noundef nonnull align 8 dereferenceable(48) ptr @_ZN4llvm11raw_ostream5writeEPKcm(ptr noundef nonnull align 8 dereferenceable(48) %32, ptr noundef nonnull @.str.33, i64 noundef 1) #32
  br label %_ZN4llvm4yaml6Output6outputENS_9StringRefE.exit.i

40:                                               ; preds = %_ZN4llvm9StringRefC2EPKc.exit11
  store i8 58, ptr %36, align 1
  %41 = load ptr, ptr %35, align 8
  %42 = getelementptr inbounds nuw i8, ptr %41, i64 1
  store ptr %42, ptr %35, align 8
  br label %_ZN4llvm4yaml6Output6outputENS_9StringRefE.exit.i

_ZN4llvm4yaml6Output6outputENS_9StringRefE.exit.i: ; preds = %40, %38
  %43 = icmp ult i64 %26, 16
  br i1 %43, label %44, label %_ZN4llvm4yaml6Output9paddedKeyENS_9StringRefE.exit

44:                                               ; preds = %_ZN4llvm4yaml6Output6outputENS_9StringRefE.exit.i
  %45 = getelementptr inbounds nuw i8, ptr @.str.34, i64 %26
  %46 = tail call noundef i64 @strlen(ptr noundef nonnull dereferenceable(1) %45) #32
  br label %_ZN4llvm4yaml6Output9paddedKeyENS_9StringRefE.exit

_ZN4llvm4yaml6Output9paddedKeyENS_9StringRefE.exit: ; preds = %_ZN4llvm4yaml6Output6outputENS_9StringRefE.exit.i, %44
  %.str.15.sink.i = phi ptr [ %45, %44 ], [ @.str.15, %_ZN4llvm4yaml6Output6outputENS_9StringRefE.exit.i ]
  %.sink.i = phi i64 [ %46, %44 ], [ 1, %_ZN4llvm4yaml6Output6outputENS_9StringRefE.exit.i ]
  %47 = getelementptr inbounds nuw i8, ptr %0, i64 96
  store ptr %.str.15.sink.i, ptr %47, align 8
  %48 = getelementptr inbounds nuw i8, ptr %0, i64 104
  store i64 %.sink.i, ptr %48, align 8
  br label %49

49:                                               ; preds = %7, %_ZN4llvm9StringRefC2EPKc.exit, %_ZN4llvm4yaml6Output9paddedKeyENS_9StringRefE.exit
  %.0 = phi i1 [ true, %_ZN4llvm4yaml6Output9paddedKeyENS_9StringRefE.exit ], [ true, %_ZN4llvm9StringRefC2EPKc.exit ], [ false, %7 ]
  ret i1 %.0
}